; ModuleID = '13/1569.c'
source_filename = "13/1569.c"
target datalayout = "e-m:e-p270:32:32-p271:32:32-p272:64:64-i64:64-f80:128-n8:16:32:64-S128"
target triple = "x86_64-pc-linux-gnu"

@.str = private unnamed_addr constant [3 x i8] c"%d\00", align 1
@.str.1 = private unnamed_addr constant [4 x i8] c" %d\00", align 1

; Function Attrs: noinline nounwind uwtable
define dso_local i32 @main() #0 {
  %1 = alloca i32, align 4
  %2 = alloca i32, align 4
  %3 = alloca i32, align 4
  %4 = alloca i32, align 4
  %5 = alloca i32, align 4
  %6 = alloca [10000 x i32], align 16
  %7 = alloca i32, align 4
  %8 = alloca [10000 x i32], align 16
  %9 = alloca [10000 x i32], align 16
  %10 = alloca i32, align 4
  %11 = alloca i32, align 4
  %12 = alloca i32, align 4
  %13 = alloca i32, align 4
  store i32 0, i32* %1, align 4
  %14 = bitcast [10000 x i32]* %8 to i8*
  call void @llvm.memset.p0i8.i64(i8* align 16 %14, i8 0, i64 40000, i1 false)
  %15 = bitcast [10000 x i32]* %9 to i8*
  call void @llvm.memset.p0i8.i64(i8* align 16 %15, i8 0, i64 40000, i1 false)
  store i32 0, i32* %11, align 4
  %16 = call i32 (i8*, ...) @__isoc99_scanf(i8* getelementptr inbounds ([3 x i8], [3 x i8]* @.str, i64 0, i64 0), i32* %3)
  store i32 0, i32* %5, align 4
  br label %17

17:                                               ; preds = %26, %0
  %18 = load i32, i32* %5, align 4
  %19 = load i32, i32* %3, align 4
  %20 = icmp slt i32 %18, %19
  br i1 %20, label %21, label %29

21:                                               ; preds = %17
  %22 = load i32, i32* %5, align 4
  %23 = sext i32 %22 to i64
  %24 = getelementptr inbounds [10000 x i32], [10000 x i32]* %6, i64 0, i64 %23
  %25 = call i32 (i8*, ...) @__isoc99_scanf(i8* getelementptr inbounds ([3 x i8], [3 x i8]* @.str, i64 0, i64 0), i32* %24)
  br label %26

26:                                               ; preds = %21
  %27 = load i32, i32* %5, align 4
  %28 = add nsw i32 %27, 1
  store i32 %28, i32* %5, align 4
  br label %17

29:                                               ; preds = %17
  %30 = getelementptr inbounds [10000 x i32], [10000 x i32]* %6, i64 0, i64 0
  %31 = load i32, i32* %30, align 16
  %32 = getelementptr inbounds [10000 x i32], [10000 x i32]* %8, i64 0, i64 0
  store i32 %31, i32* %32, align 16
  store i32 0, i32* %5, align 4
  br label %33

33:                                               ; preds = %81, %29
  %34 = load i32, i32* %5, align 4
  %35 = load i32, i32* %3, align 4
  %36 = icmp slt i32 %34, %35
  br i1 %36, label %37, label %84

37:                                               ; preds = %33
  store i32 0, i32* %11, align 4
  store i32 0, i32* %10, align 4
  br label %38

38:                                               ; preds = %61, %37
  %39 = load i32, i32* %10, align 4
  %40 = sext i32 %39 to i64
  %41 = getelementptr inbounds [10000 x i32], [10000 x i32]* %8, i64 0, i64 %40
  %42 = load i32, i32* %41, align 4
  %43 = icmp ne i32 %42, 0
  br i1 %43, label %44, label %64

44:                                               ; preds = %38
  %45 = load i32, i32* %5, align 4
  %46 = sext i32 %45 to i64
  %47 = getelementptr inbounds [10000 x i32], [10000 x i32]* %6, i64 0, i64 %46
  %48 = load i32, i32* %47, align 4
  %49 = load i32, i32* %10, align 4
  %50 = sext i32 %49 to i64
  %51 = getelementptr inbounds [10000 x i32], [10000 x i32]* %8, i64 0, i64 %50
  %52 = load i32, i32* %51, align 4
  %53 = icmp eq i32 %48, %52
  br i1 %53, label %54, label %60

54:                                               ; preds = %44
  %55 = load i32, i32* %10, align 4
  %56 = sext i32 %55 to i64
  %57 = getelementptr inbounds [10000 x i32], [10000 x i32]* %9, i64 0, i64 %56
  %58 = load i32, i32* %57, align 4
  %59 = add nsw i32 %58, 1
  store i32 %59, i32* %57, align 4
  store i32 1, i32* %11, align 4
  br label %64

60:                                               ; preds = %44
  br label %61

61:                                               ; preds = %60
  %62 = load i32, i32* %10, align 4
  %63 = add nsw i32 %62, 1
  store i32 %63, i32* %10, align 4
  br label %38

64:                                               ; preds = %54, %38
  %65 = load i32, i32* %11, align 4
  %66 = icmp eq i32 %65, 0
  br i1 %66, label %67, label %80

67:                                               ; preds = %64
  %68 = load i32, i32* %5, align 4
  %69 = sext i32 %68 to i64
  %70 = getelementptr inbounds [10000 x i32], [10000 x i32]* %6, i64 0, i64 %69
  %71 = load i32, i32* %70, align 4
  %72 = load i32, i32* %10, align 4
  %73 = sext i32 %72 to i64
  %74 = getelementptr inbounds [10000 x i32], [10000 x i32]* %8, i64 0, i64 %73
  store i32 %71, i32* %74, align 4
  %75 = load i32, i32* %10, align 4
  %76 = sext i32 %75 to i64
  %77 = getelementptr inbounds [10000 x i32], [10000 x i32]* %9, i64 0, i64 %76
  %78 = load i32, i32* %77, align 4
  %79 = add nsw i32 %78, 1
  store i32 %79, i32* %77, align 4
  br label %80

80:                                               ; preds = %67, %64
  br label %81

81:                                               ; preds = %80
  %82 = load i32, i32* %5, align 4
  %83 = add nsw i32 %82, 1
  store i32 %83, i32* %5, align 4
  br label %33

84:                                               ; preds = %33
  store i32 0, i32* %12, align 4
  store i32 0, i32* %13, align 4
  %85 = getelementptr inbounds [10000 x i32], [10000 x i32]* %9, i64 0, i64 0
  %86 = load i32, i32* %85, align 16
  %87 = icmp eq i32 %86, 1
  br i1 %87, label %88, label %92

88:                                               ; preds = %84
  %89 = getelementptr inbounds [10000 x i32], [10000 x i32]* %8, i64 0, i64 0
  %90 = load i32, i32* %89, align 16
  %91 = call i32 (i8*, ...) @printf(i8* getelementptr inbounds ([3 x i8], [3 x i8]* @.str, i64 0, i64 0), i32 %90)
  br label %102

92:                                               ; preds = %84
  %93 = getelementptr inbounds [10000 x i32], [10000 x i32]* %9, i64 0, i64 0
  %94 = load i32, i32* %93, align 16
  %95 = icmp sge i32 %94, 2
  br i1 %95, label %96, label %101

96:                                               ; preds = %92
  %97 = getelementptr inbounds [10000 x i32], [10000 x i32]* %8, i64 0, i64 0
  %98 = load i32, i32* %97, align 16
  %99 = call i32 (i8*, ...) @printf(i8* getelementptr inbounds ([3 x i8], [3 x i8]* @.str, i64 0, i64 0), i32 %98)
  %100 = getelementptr inbounds [10000 x i32], [10000 x i32]* %9, i64 0, i64 0
  store i32 0, i32* %100, align 16
  br label %101

101:                                              ; preds = %96, %92
  br label %102

102:                                              ; preds = %101, %88
  store i32 1, i32* %5, align 4
  br label %103

103:                                              ; preds = %138, %102
  %104 = load i32, i32* %5, align 4
  %105 = sext i32 %104 to i64
  %106 = getelementptr inbounds [10000 x i32], [10000 x i32]* %8, i64 0, i64 %105
  %107 = load i32, i32* %106, align 4
  %108 = icmp ne i32 %107, 0
  br i1 %108, label %109, label %141

109:                                              ; preds = %103
  %110 = load i32, i32* %5, align 4
  %111 = sext i32 %110 to i64
  %112 = getelementptr inbounds [10000 x i32], [10000 x i32]* %9, i64 0, i64 %111
  %113 = load i32, i32* %112, align 4
  %114 = icmp eq i32 %113, 1
  br i1 %114, label %115, label %121

115:                                              ; preds = %109
  %116 = load i32, i32* %5, align 4
  %117 = sext i32 %116 to i64
  %118 = getelementptr inbounds [10000 x i32], [10000 x i32]* %8, i64 0, i64 %117
  %119 = load i32, i32* %118, align 4
  %120 = call i32 (i8*, ...) @printf(i8* getelementptr inbounds ([4 x i8], [4 x i8]* @.str.1, i64 0, i64 0), i32 %119)
  br label %137

121:                                              ; preds = %109
  %122 = load i32, i32* %5, align 4
  %123 = sext i32 %122 to i64
  %124 = getelementptr inbounds [10000 x i32], [10000 x i32]* %9, i64 0, i64 %123
  %125 = load i32, i32* %124, align 4
  %126 = icmp sge i32 %125, 2
  br i1 %126, label %127, label %136

127:                                              ; preds = %121
  %128 = load i32, i32* %5, align 4
  %129 = sext i32 %128 to i64
  %130 = getelementptr inbounds [10000 x i32], [10000 x i32]* %8, i64 0, i64 %129
  %131 = load i32, i32* %130, align 4
  %132 = call i32 (i8*, ...) @printf(i8* getelementptr inbounds ([4 x i8], [4 x i8]* @.str.1, i64 0, i64 0), i32 %131)
  %133 = load i32, i32* %5, align 4
  %134 = sext i32 %133 to i64
  %135 = getelementptr inbounds [10000 x i32], [10000 x i32]* %9, i64 0, i64 %134
  store i32 0, i32* %135, align 4
  br label %136

136:                                              ; preds = %127, %121
  br label %137

137:                                              ; preds = %136, %115
  br label %138

138:                                              ; preds = %137
  %139 = load i32, i32* %5, align 4
  %140 = add nsw i32 %139, 1
  store i32 %140, i32* %5, align 4
  br label %103

141:                                              ; preds = %103
  ret i32 0
}

; Function Attrs: argmemonly nounwind willreturn
declare void @llvm.memset.p0i8.i64(i8* nocapture writeonly, i8, i64, i1 immarg) #1

declare dso_local i32 @__isoc99_scanf(i8*, ...) #2

declare dso_local i32 @printf(i8*, ...) #2


!llvm.module.flags = !{!0}
!llvm.ident = !{!1}

!0 = !{i32 1, !"wchar_size", i32 4}
!1 = !{!"clang version 10.0.0-4ubuntu1 "}
