; ModuleID = 'source-C-CXX/12/1569.c'
source_filename = "source-C-CXX/12/1569.c"
target datalayout = "e-m:e-p270:32:32-p271:32:32-p272:64:64-i64:64-f80:128-n8:16:32:64-S128"
target triple = "x86_64-pc-linux-gnu"

@.str = private unnamed_addr constant [3 x i8] c"%d\00", align 1
@.str.1 = private unnamed_addr constant [4 x i8] c" %d\00", align 1

; Function Attrs: nofree nounwind sspstrong uwtable
define dso_local i32 @main() local_unnamed_addr #0 {
  %1 = alloca i32, align 4
  %2 = alloca [10000 x i32], align 16
  %3 = alloca [10000 x i32], align 16
  %4 = alloca [10000 x i32], align 16
  %5 = bitcast i32* %1 to i8*
  call void @llvm.lifetime.start.p0i8(i64 4, i8* nonnull %5) #4
  %6 = bitcast [10000 x i32]* %2 to i8*
  call void @llvm.lifetime.start.p0i8(i64 40000, i8* nonnull %6) #4
  %7 = bitcast [10000 x i32]* %3 to i8*
  call void @llvm.lifetime.start.p0i8(i64 40000, i8* nonnull %7) #4
  call void @llvm.memset.p0i8.i64(i8* noundef nonnull align 16 dereferenceable(40000) %7, i8 0, i64 40000, i1 false)
  %8 = bitcast [10000 x i32]* %4 to i8*
  call void @llvm.lifetime.start.p0i8(i64 40000, i8* nonnull %8) #4
  call void @llvm.memset.p0i8.i64(i8* noundef nonnull align 16 dereferenceable(40000) %8, i8 0, i64 40000, i1 false)
  %9 = call i32 (i8*, ...) @__isoc99_scanf(i8* getelementptr inbounds ([3 x i8], [3 x i8]* @.str, i64 0, i64 0), i32* nonnull %1)
  %10 = load i32, i32* %1, align 4, !tbaa !5
  %11 = icmp sgt i32 %10, 0
  br i1 %11, label %12, label %70

12:                                               ; preds = %0, %12
  %13 = phi i64 [ %16, %12 ], [ 0, %0 ]
  %14 = getelementptr inbounds [10000 x i32], [10000 x i32]* %2, i64 0, i64 %13
  %15 = call i32 (i8*, ...) @__isoc99_scanf(i8* getelementptr inbounds ([3 x i8], [3 x i8]* @.str, i64 0, i64 0), i32* nonnull %14)
  %16 = add nuw nsw i64 %13, 1
  %17 = load i32, i32* %1, align 4, !tbaa !5
  %18 = sext i32 %17 to i64
  %19 = icmp slt i64 %16, %18
  br i1 %19, label %12, label %20, !llvm.loop !9

20:                                               ; preds = %12
  %21 = getelementptr inbounds [10000 x i32], [10000 x i32]* %2, i64 0, i64 0
  %22 = load i32, i32* %21, align 16, !tbaa !5
  %23 = getelementptr inbounds [10000 x i32], [10000 x i32]* %3, i64 0, i64 0
  store i32 %22, i32* %23, align 16, !tbaa !5
  %24 = icmp sgt i32 %17, 0
  br i1 %24, label %25, label %70

25:                                               ; preds = %20
  %26 = zext i32 %17 to i64
  br label %27

27:                                               ; preds = %55, %25
  %28 = phi i32 [ %22, %25 ], [ %56, %55 ]
  %29 = phi i64 [ 0, %25 ], [ %53, %55 ]
  %30 = icmp eq i32 %28, 0
  %31 = getelementptr inbounds [10000 x i32], [10000 x i32]* %2, i64 0, i64 %29
  %32 = load i32, i32* %31, align 4, !tbaa !5
  br i1 %30, label %44, label %33

33:                                               ; preds = %27, %39
  %34 = phi i64 [ %40, %39 ], [ 0, %27 ]
  %35 = phi i32 [ %42, %39 ], [ %28, %27 ]
  %36 = icmp eq i32 %32, %35
  br i1 %36, label %37, label %39

37:                                               ; preds = %33
  %38 = and i64 %34, 4294967295
  br label %48

39:                                               ; preds = %33
  %40 = add nuw i64 %34, 1
  %41 = getelementptr inbounds [10000 x i32], [10000 x i32]* %3, i64 0, i64 %40
  %42 = load i32, i32* %41, align 4, !tbaa !5
  %43 = icmp eq i32 %42, 0
  br i1 %43, label %44, label %33, !llvm.loop !11

44:                                               ; preds = %39, %27
  %45 = phi i64 [ 0, %27 ], [ %40, %39 ]
  %46 = and i64 %45, 4294967295
  %47 = getelementptr inbounds [10000 x i32], [10000 x i32]* %3, i64 0, i64 %46
  store i32 %32, i32* %47, align 4, !tbaa !5
  br label %48

48:                                               ; preds = %37, %44
  %49 = phi i64 [ %38, %37 ], [ %46, %44 ]
  %50 = getelementptr inbounds [10000 x i32], [10000 x i32]* %4, i64 0, i64 %49
  %51 = load i32, i32* %50, align 4, !tbaa !5
  %52 = add nsw i32 %51, 1
  store i32 %52, i32* %50, align 4, !tbaa !5
  %53 = add nuw nsw i64 %29, 1
  %54 = icmp eq i64 %53, %26
  br i1 %54, label %57, label %55, !llvm.loop !12

55:                                               ; preds = %48
  %56 = load i32, i32* %23, align 16, !tbaa !5
  br label %27

57:                                               ; preds = %48
  %58 = getelementptr inbounds [10000 x i32], [10000 x i32]* %4, i64 0, i64 0
  %59 = load i32, i32* %58, align 16, !tbaa !5
  %60 = icmp eq i32 %59, 1
  br i1 %60, label %61, label %63

61:                                               ; preds = %57
  %62 = load i32, i32* %23, align 16, !tbaa !5
  br label %67

63:                                               ; preds = %57
  %64 = icmp sgt i32 %59, 1
  br i1 %64, label %65, label %70

65:                                               ; preds = %63
  %66 = load i32, i32* %23, align 16, !tbaa !5
  br label %67

67:                                               ; preds = %61, %65
  %68 = phi i32 [ %66, %65 ], [ %62, %61 ]
  %69 = call i32 (i8*, ...) @printf(i8* nonnull dereferenceable(1) getelementptr inbounds ([3 x i8], [3 x i8]* @.str, i64 0, i64 0), i32 %68)
  br label %70

70:                                               ; preds = %67, %0, %20, %63
  %71 = getelementptr inbounds [10000 x i32], [10000 x i32]* %3, i64 0, i64 1
  %72 = load i32, i32* %71, align 4, !tbaa !5
  %73 = icmp eq i32 %72, 0
  br i1 %73, label %91, label %74

74:                                               ; preds = %70, %86
  %75 = phi i64 [ %87, %86 ], [ 1, %70 ]
  %76 = phi i32 [ %89, %86 ], [ %72, %70 ]
  %77 = getelementptr inbounds [10000 x i32], [10000 x i32]* %4, i64 0, i64 %75
  %78 = load i32, i32* %77, align 4, !tbaa !5
  %79 = icmp eq i32 %78, 1
  br i1 %79, label %80, label %82

80:                                               ; preds = %74
  %81 = call i32 (i8*, ...) @printf(i8* nonnull dereferenceable(1) getelementptr inbounds ([4 x i8], [4 x i8]* @.str.1, i64 0, i64 0), i32 %76)
  br label %86

82:                                               ; preds = %74
  %83 = icmp sgt i32 %78, 1
  br i1 %83, label %84, label %86

84:                                               ; preds = %82
  %85 = call i32 (i8*, ...) @printf(i8* nonnull dereferenceable(1) getelementptr inbounds ([4 x i8], [4 x i8]* @.str.1, i64 0, i64 0), i32 %76)
  store i32 0, i32* %77, align 4, !tbaa !5
  br label %86

86:                                               ; preds = %80, %84, %82
  %87 = add nuw i64 %75, 1
  %88 = getelementptr inbounds [10000 x i32], [10000 x i32]* %3, i64 0, i64 %87
  %89 = load i32, i32* %88, align 4, !tbaa !5
  %90 = icmp eq i32 %89, 0
  br i1 %90, label %91, label %74, !llvm.loop !13

91:                                               ; preds = %86, %70
  call void @llvm.lifetime.end.p0i8(i64 40000, i8* nonnull %8) #4
  call void @llvm.lifetime.end.p0i8(i64 40000, i8* nonnull %7) #4
  call void @llvm.lifetime.end.p0i8(i64 40000, i8* nonnull %6) #4
  call void @llvm.lifetime.end.p0i8(i64 4, i8* nonnull %5) #4
  ret i32 0
}

; Function Attrs: argmemonly mustprogress nofree nosync nounwind willreturn
declare void @llvm.lifetime.start.p0i8(i64 immarg, i8* nocapture) #1

; Function Attrs: argmemonly mustprogress nofree nounwind willreturn writeonly
declare void @llvm.memset.p0i8.i64(i8* nocapture writeonly, i8, i64, i1 immarg) #2

; Function Attrs: nofree nounwind
declare noundef i32 @__isoc99_scanf(i8* nocapture noundef readonly, ...) local_unnamed_addr #3

; Function Attrs: nofree nounwind
declare noundef i32 @printf(i8* nocapture noundef readonly, ...) local_unnamed_addr #3

; Function Attrs: argmemonly mustprogress nofree nosync nounwind willreturn
declare void @llvm.lifetime.end.p0i8(i64 immarg, i8* nocapture) #1


!llvm.module.flags = !{!0, !1, !2, !3}
!llvm.ident = !{!4}

!0 = !{i32 1, !"wchar_size", i32 4}
!1 = !{i32 7, !"PIC Level", i32 2}
!2 = !{i32 7, !"PIE Level", i32 2}
!3 = !{i32 7, !"uwtable", i32 1}
!4 = !{!"clang version 13.0.0"}
!5 = !{!6, !6, i64 0}
!6 = !{!"int", !7, i64 0}
!7 = !{!"omnipotent char", !8, i64 0}
!8 = !{!"Simple C/C++ TBAA"}
!9 = distinct !{!9, !10}
!10 = !{!"llvm.loop.mustprogress"}
!11 = distinct !{!11, !10}
!12 = distinct !{!12, !10}
!13 = distinct !{!13, !10}
